target datalayout = "e-m:e-p270:32:32-p271:32:32-p272:64:64-i64:64-i128:128-f80:128-n8:16:32:64-S128"
target triple = "x86_64-unknown-linux-gnu"

%class.params_ref = type { ptr }

; Function Attrs: mustprogress uwtable
define hidden noundef i32 @_ZNK10params_ref8get_uintEPKcj(ptr noundef nonnull align 8 dereferenceable(8) %this, ptr noundef %k, i32 noundef %_default) #5 align 2 {
entry:
  %this.addr = alloca ptr, align 8
  %k.addr = alloca ptr, align 8
  %_default.addr = alloca i32, align 4
  store ptr %this, ptr %this.addr, align 8
  store ptr %k, ptr %k.addr, align 8
  store i32 %_default, ptr %_default.addr, align 4
  %this1 = load ptr, ptr %this.addr, align 8
  %m_params = getelementptr inbounds %class.params_ref, ptr %this1, i32 0, i32 0
  %0 = load ptr, ptr %m_params, align 8
  %tobool = icmp ne ptr %0, null
  br i1 %tobool, label %cond.true, label %cond.false

cond.true:                                        ; preds = %entry
  %m_params2 = getelementptr inbounds %class.params_ref, ptr %this1, i32 0, i32 0
  %1 = load ptr, ptr %m_params2, align 8
  %2 = load ptr, ptr %k.addr, align 8
  %3 = load i32, ptr %_default.addr, align 4
  %call = call noundef i32 @_ZNK6params8get_uintEPKcj(ptr noundef nonnull align 8 dereferenceable(12) %1, ptr noundef %2, i32 noundef %3)
  br label %cond.end

cond.false:                                       ; preds = %entry
  %4 = load i32, ptr %_default.addr, align 4
  br label %cond.end

cond.end:                                         ; preds = %cond.false, %cond.true
  %cond = phi i32 [ %call, %cond.true ], [ %4, %cond.false ]
  ret i32 %cond
}

; Function Attrs: mustprogress uwtable
define hidden noundef i32 @_ZNK10params_ref8get_uintEPKcRKS_j(ptr noundef nonnull align 8 dereferenceable(8) %this, ptr noundef %k, ptr noundef nonnull align 8 dereferenceable(8) %fallback, i32 noundef %_default) #5 align 2 {
entry:
  %this.addr = alloca ptr, align 8
  %k.addr = alloca ptr, align 8
  %fallback.addr = alloca ptr, align 8
  %_default.addr = alloca i32, align 4
  store ptr %this, ptr %this.addr, align 8
  store ptr %k, ptr %k.addr, align 8
  store ptr %fallback, ptr %fallback.addr, align 8
  store i32 %_default, ptr %_default.addr, align 4
  %this1 = load ptr, ptr %this.addr, align 8
  %m_params = getelementptr inbounds %class.params_ref, ptr %this1, i32 0, i32 0
  %0 = load ptr, ptr %m_params, align 8
  %tobool = icmp ne ptr %0, null
  br i1 %tobool, label %cond.true, label %cond.false

cond.true:                                        ; preds = %entry
  %m_params2 = getelementptr inbounds %class.params_ref, ptr %this1, i32 0, i32 0
  %1 = load ptr, ptr %m_params2, align 8
  %2 = load ptr, ptr %k.addr, align 8
  %3 = load ptr, ptr %fallback.addr, align 8
  %4 = load i32, ptr %_default.addr, align 4
  %call = call noundef i32 @_ZNK6params8get_uintEPKcRK10params_refj(ptr noundef nonnull align 8 dereferenceable(12) %1, ptr noundef %2, ptr noundef nonnull align 8 dereferenceable(8) %3, i32 noundef %4)
  br label %cond.end

cond.false:                                       ; preds = %entry
  %5 = load ptr, ptr %fallback.addr, align 8
  %6 = load ptr, ptr %k.addr, align 8
  %7 = load i32, ptr %_default.addr, align 4
  %call3 = call noundef i32 @_ZNK10params_ref8get_uintEPKcj(ptr noundef nonnull align 8 dereferenceable(8) %5, ptr noundef %6, i32 noundef %7)
  br label %cond.end

cond.end:                                         ; preds = %cond.false, %cond.true
  %cond = phi i32 [ %call, %cond.true ], [ %call3, %cond.false ]
  ret i32 %cond
}