; Function Attrs: mustprogress uwtable
define hidden noundef i32 @_ZNK10params_ref8get_uintEPKcRKS_j(ptr nocapture noundef nonnull readonly align 8 dereferenceable(8) %this, ptr noundef %k, ptr nocapture noundef nonnull readonly align 8 dereferenceable(8) %fallback, i32 noundef %_default) local_unnamed_addr #3 align 2 {
entry:
  %0 = load ptr, ptr %this, align 8
  %tobool.not = icmp eq ptr %0, null
  br i1 %tobool.not, label %cond.false, label %cond.true

cond.true:                                        ; preds = %entry
  %call = tail call noundef i32 @_ZNK6params8get_uintEPKcRK10params_refj(ptr noundef nonnull align 8 dereferenceable(12) %0, ptr noundef %k, ptr noundef nonnull align 8 dereferenceable(8) %fallback, i32 noundef %_default)
  br label %cond.end

cond.false:                                       ; preds = %entry
  %1 = load ptr, ptr %fallback, align 8
  %tobool.not.i = icmp eq ptr %1, null
  br i1 %tobool.not.i, label %cond.end, label %cond.true.i

cond.true.i:                                      ; preds = %cond.false
  %call.i = tail call noundef i32 @_ZNK6params8get_uintEPKcj(ptr noundef nonnull align 8 dereferenceable(12) %1, ptr noundef %k, i32 noundef %_default)
  br label %cond.end

cond.end:                                         ; preds = %cond.true.i, %cond.false, %cond.true
  %cond = phi i32 [ %call, %cond.true ], [ %call.i, %cond.true.i ], [ %_default, %cond.false ]
  ret i32 %cond
}